; ModuleID = '47/1723.c'
source_filename = "47/1723.c"
target datalayout = "e-m:e-p270:32:32-p271:32:32-p272:64:64-i64:64-f80:128-n8:16:32:64-S128"
target triple = "x86_64-pc-linux-gnu"

@.str = private unnamed_addr constant [3 x i8] c"%d\00", align 1
@.str.1 = private unnamed_addr constant [4 x i8] c"%d \00", align 1

; Function Attrs: noinline nounwind uwtable
define dso_local void @inv(i32* %0, i32 %1) #0 {
  %3 = alloca i32*, align 8
  %4 = alloca i32, align 4
  %5 = alloca i32, align 4
  %6 = alloca i32*, align 8
  %7 = alloca i32*, align 8
  %8 = alloca i32*, align 8
  %9 = alloca i32, align 4
  store i32* %0, i32** %3, align 8
  store i32 %1, i32* %4, align 4
  %10 = load i32, i32* %4, align 4
  %11 = sub nsw i32 %10, 1
  %12 = sdiv i32 %11, 2
  store i32 %12, i32* %9, align 4
  %13 = load i32*, i32** %3, align 8
  store i32* %13, i32** %7, align 8
  %14 = load i32*, i32** %3, align 8
  %15 = load i32, i32* %4, align 4
  %16 = sext i32 %15 to i64
  %17 = getelementptr inbounds i32, i32* %14, i64 %16
  %18 = getelementptr inbounds i32, i32* %17, i64 -1
  store i32* %18, i32** %8, align 8
  %19 = load i32*, i32** %3, align 8
  %20 = load i32, i32* %9, align 4
  %21 = sext i32 %20 to i64
  %22 = getelementptr inbounds i32, i32* %19, i64 %21
  store i32* %22, i32** %6, align 8
  br label %23

23:                                               ; preds = %35, %2
  %24 = load i32*, i32** %7, align 8
  %25 = load i32*, i32** %6, align 8
  %26 = icmp ule i32* %24, %25
  br i1 %26, label %27, label %40

27:                                               ; preds = %23
  %28 = load i32*, i32** %7, align 8
  %29 = load i32, i32* %28, align 4
  store i32 %29, i32* %5, align 4
  %30 = load i32*, i32** %8, align 8
  %31 = load i32, i32* %30, align 4
  %32 = load i32*, i32** %7, align 8
  store i32 %31, i32* %32, align 4
  %33 = load i32, i32* %5, align 4
  %34 = load i32*, i32** %8, align 8
  store i32 %33, i32* %34, align 4
  br label %35

35:                                               ; preds = %27
  %36 = load i32*, i32** %7, align 8
  %37 = getelementptr inbounds i32, i32* %36, i32 1
  store i32* %37, i32** %7, align 8
  %38 = load i32*, i32** %8, align 8
  %39 = getelementptr inbounds i32, i32* %38, i32 -1
  store i32* %39, i32** %8, align 8
  br label %23

40:                                               ; preds = %23
  ret void
}

; Function Attrs: noinline nounwind uwtable
define dso_local i32 @main() #0 {
  %1 = alloca i32, align 4
  %2 = alloca i32, align 4
  %3 = alloca i32, align 4
  %4 = alloca [100 x i32], align 16
  %5 = alloca i32*, align 8
  store i32 0, i32* %1, align 4
  %6 = call i32 (i8*, ...) @__isoc99_scanf(i8* getelementptr inbounds ([3 x i8], [3 x i8]* @.str, i64 0, i64 0), i32* %3)
  %7 = getelementptr inbounds [100 x i32], [100 x i32]* %4, i64 0, i64 0
  store i32* %7, i32** %5, align 8
  store i32 0, i32* %2, align 4
  br label %8

8:                                                ; preds = %16, %0
  %9 = load i32, i32* %2, align 4
  %10 = load i32, i32* %3, align 4
  %11 = icmp slt i32 %9, %10
  br i1 %11, label %12, label %19

12:                                               ; preds = %8
  %13 = load i32*, i32** %5, align 8
  %14 = getelementptr inbounds i32, i32* %13, i32 1
  store i32* %14, i32** %5, align 8
  %15 = call i32 (i8*, ...) @__isoc99_scanf(i8* getelementptr inbounds ([3 x i8], [3 x i8]* @.str, i64 0, i64 0), i32* %13)
  br label %16

16:                                               ; preds = %12
  %17 = load i32, i32* %2, align 4
  %18 = add nsw i32 %17, 1
  store i32 %18, i32* %2, align 4
  br label %8

19:                                               ; preds = %8
  %20 = getelementptr inbounds [100 x i32], [100 x i32]* %4, i64 0, i64 0
  %21 = load i32, i32* %3, align 4
  call void @inv(i32* %20, i32 %21)
  store i32 0, i32* %2, align 4
  br label %22

22:                                               ; preds = %33, %19
  %23 = load i32, i32* %2, align 4
  %24 = load i32, i32* %3, align 4
  %25 = sub nsw i32 %24, 1
  %26 = icmp slt i32 %23, %25
  br i1 %26, label %27, label %36

27:                                               ; preds = %22
  %28 = load i32, i32* %2, align 4
  %29 = sext i32 %28 to i64
  %30 = getelementptr inbounds [100 x i32], [100 x i32]* %4, i64 0, i64 %29
  %31 = load i32, i32* %30, align 4
  %32 = call i32 (i8*, ...) @printf(i8* getelementptr inbounds ([4 x i8], [4 x i8]* @.str.1, i64 0, i64 0), i32 %31)
  br label %33

33:                                               ; preds = %27
  %34 = load i32, i32* %2, align 4
  %35 = add nsw i32 %34, 1
  store i32 %35, i32* %2, align 4
  br label %22

36:                                               ; preds = %22
  %37 = load i32, i32* %3, align 4
  %38 = sub nsw i32 %37, 1
  %39 = sext i32 %38 to i64
  %40 = getelementptr inbounds [100 x i32], [100 x i32]* %4, i64 0, i64 %39
  %41 = load i32, i32* %40, align 4
  %42 = call i32 (i8*, ...) @printf(i8* getelementptr inbounds ([3 x i8], [3 x i8]* @.str, i64 0, i64 0), i32 %41)
  ret i32 0
}

declare dso_local i32 @__isoc99_scanf(i8*, ...) #1

declare dso_local i32 @printf(i8*, ...) #1


!llvm.module.flags = !{!0}
!llvm.ident = !{!1}

!0 = !{i32 1, !"wchar_size", i32 4}
!1 = !{!"clang version 10.0.0-4ubuntu1 "}
